target datalayout = "e-m:e-p270:32:32-p271:32:32-p272:64:64-i64:64-i128:128-f80:128-n8:16:32:64-S128"
target triple = "x86_64-pc-linux-gnu"

@.str.12 = private unnamed_addr constant [3 x i8] c"Oi\00", align 1
@PyExc_ValueError = external global ptr, align 8
@.str.13 = private unnamed_addr constant [17 x i8] c"invalid rounding\00", align 1

; Function Attrs: nounwind uwtable
define internal i32 @check_time_rounding(i32 noundef %0) #0 {
  %2 = alloca i32, align 4
  %3 = alloca i32, align 4
  store i32 %0, ptr %3, align 4, !tbaa !8
  %4 = load i32, ptr %3, align 4, !tbaa !8
  %5 = icmp ne i32 %4, 0
  br i1 %5, label %6, label %17

6:                                                ; preds = %1
  %7 = load i32, ptr %3, align 4, !tbaa !8
  %8 = icmp ne i32 %7, 1
  br i1 %8, label %9, label %17

9:                                                ; preds = %6
  %10 = load i32, ptr %3, align 4, !tbaa !8
  %11 = icmp ne i32 %10, 2
  br i1 %11, label %12, label %17

12:                                               ; preds = %9
  %13 = load i32, ptr %3, align 4, !tbaa !8
  %14 = icmp ne i32 %13, 3
  br i1 %14, label %15, label %17

15:                                               ; preds = %12
  %16 = load ptr, ptr @PyExc_ValueError, align 8, !tbaa !3
  call void @PyErr_SetString(ptr noundef %16, ptr noundef @.str.13)
  store i32 -1, ptr %2, align 4
  br label %18

17:                                               ; preds = %12, %9, %6, %1
  store i32 0, ptr %2, align 4
  br label %18

18:                                               ; preds = %17, %15
  %19 = load i32, ptr %2, align 4
  ret i32 %19
}

; Function Attrs: nounwind uwtable
define internal ptr @test_PyTime_AsMicroseconds(ptr noundef %0, ptr noundef %1) #0 {
  %3 = alloca ptr, align 8
  %4 = alloca ptr, align 8
  %5 = alloca ptr, align 8
  %6 = alloca ptr, align 8
  %7 = alloca i32, align 4
  %8 = alloca i32, align 4
  %9 = alloca i64, align 8
  %10 = alloca i64, align 8
  store ptr %0, ptr %4, align 8, !tbaa !3
  store ptr %1, ptr %5, align 8, !tbaa !3
  call void @llvm.lifetime.start.p0(i64 8, ptr %6) #3
  call void @llvm.lifetime.start.p0(i64 4, ptr %7) #3
  %11 = load ptr, ptr %5, align 8, !tbaa !3
  %12 = call i32 (ptr, ptr, ...) @PyArg_ParseTuple(ptr noundef %11, ptr noundef @.str.12, ptr noundef %6, ptr noundef %7)
  %13 = icmp ne i32 %12, 0
  br i1 %13, label %15, label %14

14:                                               ; preds = %2
  store ptr null, ptr %3, align 8
  store i32 1, ptr %8, align 4
  br label %32

15:                                               ; preds = %2
  call void @llvm.lifetime.start.p0(i64 8, ptr %9) #3
  %16 = load ptr, ptr %6, align 8, !tbaa !3
  %17 = call i32 @_PyTime_FromLong(ptr noundef %9, ptr noundef %16)
  %18 = icmp slt i32 %17, 0
  br i1 %18, label %19, label %20

19:                                               ; preds = %15
  store ptr null, ptr %3, align 8
  store i32 1, ptr %8, align 4
  br label %31

20:                                               ; preds = %15
  %21 = load i32, ptr %7, align 4, !tbaa !8
  %22 = call i32 @check_time_rounding(i32 noundef %21)
  %23 = icmp slt i32 %22, 0
  br i1 %23, label %24, label %25

24:                                               ; preds = %20
  store ptr null, ptr %3, align 8
  store i32 1, ptr %8, align 4
  br label %31

25:                                               ; preds = %20
  call void @llvm.lifetime.start.p0(i64 8, ptr %10) #3
  %26 = load i64, ptr %9, align 8, !tbaa !10
  %27 = load i32, ptr %7, align 4, !tbaa !8
  %28 = call i64 @_PyTime_AsMicroseconds(i64 noundef %26, i32 noundef %27)
  store i64 %28, ptr %10, align 8, !tbaa !10
  %29 = load i64, ptr %10, align 8, !tbaa !10
  %30 = call ptr @_PyTime_AsLong(i64 noundef %29)
  store ptr %30, ptr %3, align 8
  store i32 1, ptr %8, align 4
  call void @llvm.lifetime.end.p0(i64 8, ptr %10) #3
  br label %31

31:                                               ; preds = %25, %24, %19
  call void @llvm.lifetime.end.p0(i64 8, ptr %9) #3
  br label %32

32:                                               ; preds = %31, %14
  call void @llvm.lifetime.end.p0(i64 4, ptr %7) #3
  call void @llvm.lifetime.end.p0(i64 8, ptr %6) #3
  %33 = load ptr, ptr %3, align 8
  ret ptr %33
}